target datalayout = "e-m:e-p270:32:32-p271:32:32-p272:64:64-i64:64-i128:128-f80:128-n8:16:32:64-S128"
target triple = "x86_64-unknown-linux-gnu"

%"class.std::__cxx11::basic_string" = type { %"struct.std::__cxx11::basic_string<char>::_Alloc_hider", i64, %union.anon }
%"struct.std::__cxx11::basic_string<char>::_Alloc_hider" = type { ptr }
%union.anon = type { i64, [8 x i8] }
%"class.folly::Range" = type { ptr, ptr }
%"class.proxygen::HTTP1xCodec" = type <{ %"class.proxygen::HTTPCodec", %"class.std::__cxx11::basic_string", ptr, i64, i64, %"struct.proxygen::http_parser", ptr, %"class.std::unique_ptr", %"class.std::unique_ptr", %"class.std::unique_ptr.7", %"class.std::__cxx11::basic_string", %"class.folly::Range", %"class.std::__cxx11::basic_string", %"class.std::__cxx11::basic_string", %"class.std::__cxx11::basic_string", %"class.std::__cxx11::basic_string", %"class.std::__cxx11::basic_string", %"class.std::__cxx11::basic_string", %"struct.proxygen::HTTPHeaderSize", i8, i8, i8, i8, %"struct.std::pair", i32, [4 x i8] }>
%"class.proxygen::HTTPCodec" = type { ptr }
%"struct.proxygen::http_parser" = type { i8, i8, i8, i8, i32, i64, i16, i16, i16, i8, i8, ptr }
%"class.std::unique_ptr" = type { %"struct.std::__uniq_ptr_data" }
%"struct.std::__uniq_ptr_data" = type { %"class.std::__uniq_ptr_impl" }
%"class.std::__uniq_ptr_impl" = type { %"class.std::tuple" }
%"class.std::tuple" = type { %"struct.std::_Tuple_impl" }
%"struct.std::_Tuple_impl" = type { %"struct.std::_Head_base.6" }
%"struct.std::_Head_base.6" = type { ptr }
%"class.std::unique_ptr.7" = type { %"struct.std::__uniq_ptr_data.8" }
%"struct.std::__uniq_ptr_data.8" = type { %"class.std::__uniq_ptr_impl.9" }
%"class.std::__uniq_ptr_impl.9" = type { %"class.std::tuple.10" }
%"class.std::tuple.10" = type { %"struct.std::_Tuple_impl.11" }
%"struct.std::_Tuple_impl.11" = type { %"struct.std::_Head_base.14" }
%"struct.std::_Head_base.14" = type { ptr }
%"struct.proxygen::HTTPHeaderSize" = type { i32, i32, i32 }
%"struct.std::pair" = type { i8, %"class.std::__cxx11::basic_string" }

@_ZN8proxygen11HTTP1xCodecC1ENS_18TransportDirectionEbb = unnamed_addr alias void (ptr, i8, i1, i1), ptr @_ZN8proxygen11HTTP1xCodecC2ENS_18TransportDirectionEbb
@_ZN8proxygen11HTTP1xCodecD1Ev = unnamed_addr alias void (ptr), ptr @_ZN8proxygen11HTTP1xCodecD2Ev

; Function Attrs: mustprogress uwtable
define void @_ZN8proxygen11HTTP1xCodec17makeResponseCodecEb(ptr noalias sret(%"class.proxygen::HTTP1xCodec") align 8 %agg.result, i1 noundef zeroext %mayChunkEgress) #4 align 2 {
entry:
  %result.ptr = alloca ptr, align 8
  %mayChunkEgress.addr = alloca i8, align 1
  %nrvo = alloca i1, align 1
  store ptr %agg.result, ptr %result.ptr, align 8
  %frombool = zext i1 %mayChunkEgress to i8
  store i8 %frombool, ptr %mayChunkEgress.addr, align 1
  store i1 false, ptr %nrvo, align 1
  call void @_ZN8proxygen11HTTP1xCodecC1ENS_18TransportDirectionEbb(ptr noundef nonnull align 8 dereferenceable(428) %agg.result, i8 noundef zeroext 0, i1 noundef zeroext false, i1 noundef zeroext false)
  %0 = load i8, ptr %mayChunkEgress.addr, align 1
  %tobool = trunc i8 %0 to i1
  %mayChunkEgress_ = getelementptr inbounds %"class.proxygen::HTTP1xCodec", ptr %agg.result, i32 0, i32 24
  %1 = zext i1 %tobool to i32
  %bf.load = load i32, ptr %mayChunkEgress_, align 8
  %bf.shl = shl i32 %1, 16
  %bf.clear = and i32 %bf.load, -65537
  %bf.set = or i32 %bf.clear, %bf.shl
  store i32 %bf.set, ptr %mayChunkEgress_, align 8
  store i1 true, ptr %nrvo, align 1
  %nrvo.val = load i1, ptr %nrvo, align 1
  br i1 %nrvo.val, label %nrvo.skipdtor, label %nrvo.unused

nrvo.unused:                                      ; preds = %entry
  call void @_ZN8proxygen11HTTP1xCodecD1Ev(ptr noundef nonnull align 8 dereferenceable(428) %agg.result) #3
  br label %nrvo.skipdtor

nrvo.skipdtor:                                    ; preds = %nrvo.unused, %entry
  ret void
}