; Function Attrs: mustprogress uwtable
define void @_ZN8proxygen11HTTP1xCodec17makeResponseCodecEb(ptr noalias sret(%"class.proxygen::HTTP1xCodec") align 8 %agg.result, i1 noundef zeroext %mayChunkEgress) local_unnamed_addr #3 align 2 {
entry:
  tail call void @_ZN8proxygen11HTTP1xCodecC1ENS_18TransportDirectionEbb(ptr noundef nonnull align 8 dereferenceable(428) %agg.result, i8 noundef zeroext 0, i1 noundef zeroext false, i1 noundef zeroext false)
  %mayChunkEgress_ = getelementptr inbounds i8, ptr %agg.result, i64 424
  %bf.load = load i32, ptr %mayChunkEgress_, align 8
  %bf.shl = select i1 %mayChunkEgress, i32 65536, i32 0
  %bf.clear = and i32 %bf.load, -65537
  %bf.set = or disjoint i32 %bf.clear, %bf.shl
  store i32 %bf.set, ptr %mayChunkEgress_, align 8
  ret void
}